; Function Attrs: nounwind uwtable
define ptr @evp_keymgmt_gen(ptr noundef readonly captures(none) %0, ptr noundef %1, ptr noundef %2, ptr noundef %3) local_unnamed_addr #0 {
  %5 = getelementptr inbounds nuw i8, ptr %0, i64 144
  %6 = load ptr, ptr %5, align 8, !tbaa !30
  %7 = icmp eq ptr %6, null
  br i1 %7, label %10, label %8

8:                                                ; preds = %4
  %9 = tail call ptr %6(ptr noundef %1, ptr noundef %2, ptr noundef %3) #5
  br label %10

10:                                               ; preds = %4, %8
  %.0 = phi ptr [ %9, %8 ], [ null, %4 ]
  ret ptr %.0
}